; Function Attrs: mustprogress nounwind uwtable
define internal void @_ZNSt23_Sp_counted_ptr_inplaceIN12_GLOBAL__N_122RadialVarianceHashImplESaIvELN9__gnu_cxx12_Lock_policyE2EE10_M_disposeEv(ptr noundef nonnull align 8 dereferenceable(448) %0) unnamed_addr #7 align 2 personality ptr @__gxx_personality_v0 {
  %2 = getelementptr inbounds nuw i8, ptr %0, i64 344
  tail call void @_ZN2cv3MatD1Ev(ptr noundef nonnull align 8 dereferenceable(96) %2) #23
  %3 = getelementptr inbounds nuw i8, ptr %0, i64 248
  tail call void @_ZN2cv3MatD1Ev(ptr noundef nonnull align 8 dereferenceable(96) %3) #23
  %4 = getelementptr inbounds nuw i8, ptr %0, i64 144
  tail call void @_ZN2cv3MatD1Ev(ptr noundef nonnull align 8 dereferenceable(96) %4) #23
  %5 = getelementptr inbounds nuw i8, ptr %0, i64 120
  %6 = load ptr, ptr %5, align 8, !tbaa !55
  %.not.i.i.i.i.i.i = icmp eq ptr %6, null
  br i1 %.not.i.i.i.i.i.i, label %_ZNSt16allocator_traitsISaIvEE7destroyIN12_GLOBAL__N_122RadialVarianceHashImplEEEvRS0_PT_.exit, label %7

7:                                                ; preds = %1
  tail call void @_ZdlPv(ptr noundef nonnull %6) #26
  br label %_ZNSt16allocator_traitsISaIvEE7destroyIN12_GLOBAL__N_122RadialVarianceHashImplEEEvRS0_PT_.exit

_ZNSt16allocator_traitsISaIvEE7destroyIN12_GLOBAL__N_122RadialVarianceHashImplEEEvRS0_PT_.exit: ; preds = %1, %7
  %8 = getelementptr inbounds nuw i8, ptr %0, i64 24
  tail call void @_ZN2cv3MatD1Ev(ptr noundef nonnull align 8 dereferenceable(96) %8) #23
  ret void
}